; ModuleID = 'source-C-CXX/18/1221.c'
source_filename = "source-C-CXX/18/1221.c"
target datalayout = "e-m:e-p270:32:32-p271:32:32-p272:64:64-i64:64-f80:128-n8:16:32:64-S128"
target triple = "x86_64-pc-linux-gnu"

%struct._IO_FILE = type { i32, i8*, i8*, i8*, i8*, i8*, i8*, i8*, i8*, i8*, i8*, i8*, %struct._IO_marker*, %struct._IO_FILE*, i32, i32, i64, i16, i8, [1 x i8], i8*, i64, %struct._IO_codecvt*, %struct._IO_wide_data*, %struct._IO_FILE*, i8*, i64, i32, [20 x i8] }
%struct._IO_marker = type opaque
%struct._IO_codecvt = type opaque
%struct._IO_wide_data = type opaque

@.str = private unnamed_addr constant [3 x i8] c"%s\00", align 1
@.str.1 = private unnamed_addr constant [4 x i8] c"%s \00", align 1
@stdin = external local_unnamed_addr global %struct._IO_FILE*, align 8

; Function Attrs: nounwind sspstrong uwtable
define dso_local void @main() local_unnamed_addr #0 {
  %1 = alloca [100 x i8], align 16
  %2 = alloca [100 x i8], align 16
  %3 = getelementptr inbounds [100 x i8], [100 x i8]* %2, i64 0, i64 0
  %4 = alloca [100 x [100 x i8]], align 16
  %5 = getelementptr inbounds [100 x i8], [100 x i8]* %1, i64 0, i64 0
  call void @llvm.lifetime.start.p0i8(i64 100, i8* nonnull %5) #7
  call void @llvm.memset.p0i8.i64(i8* noundef nonnull align 16 dereferenceable(100) %5, i8 0, i64 100, i1 false)
  %6 = getelementptr inbounds [100 x i8], [100 x i8]* %2, i64 0, i64 0
  call void @llvm.lifetime.start.p0i8(i64 100, i8* nonnull %6) #7
  call void @llvm.memset.p0i8.i64(i8* noundef nonnull align 16 dereferenceable(100) %6, i8 0, i64 100, i1 false)
  %7 = getelementptr inbounds [100 x [100 x i8]], [100 x [100 x i8]]* %4, i64 0, i64 0, i64 0
  call void @llvm.lifetime.start.p0i8(i64 10000, i8* nonnull %7) #7
  call void @llvm.memset.p0i8.i64(i8* noundef nonnull align 16 dereferenceable(10000) %7, i8 0, i64 10000, i1 false)
  br label %8

8:                                                ; preds = %0, %15
  %9 = phi i64 [ 0, %0 ], [ %16, %15 ]
  %10 = getelementptr inbounds [100 x [100 x i8]], [100 x [100 x i8]]* %4, i64 0, i64 %9, i64 0
  %11 = call i32 (i8*, ...) @__isoc99_scanf(i8* getelementptr inbounds ([3 x i8], [3 x i8]* @.str, i64 0, i64 0), i8* nonnull %10)
  %12 = load %struct._IO_FILE*, %struct._IO_FILE** @stdin, align 8, !tbaa !5
  %13 = call i32 @getc(%struct._IO_FILE* %12) #7
  %14 = icmp eq i32 %13, 10
  br i1 %14, label %18, label %15

15:                                               ; preds = %8
  %16 = add nuw nsw i64 %9, 1
  %17 = icmp eq i64 %16, 100
  br i1 %17, label %20, label %8, !llvm.loop !9

18:                                               ; preds = %8
  %19 = trunc i64 %9 to i32
  br label %20

20:                                               ; preds = %15, %18
  %21 = phi i32 [ %19, %18 ], [ 100, %15 ]
  %22 = call i32 (i8*, ...) bitcast (i32 (...)* @gets to i32 (i8*, ...)*)(i8* nonnull %5) #7
  %23 = call i32 (i8*, ...) bitcast (i32 (...)* @gets to i32 (i8*, ...)*)(i8* nonnull %6) #7
  %24 = call i64 @strlen(i8* noundef nonnull %6) #8
  %25 = trunc i64 %24 to i32
  %26 = shl i64 %24, 32
  %27 = ashr exact i64 %26, 32
  %28 = icmp eq i32 %21, 0
  br i1 %28, label %58, label %29

29:                                               ; preds = %20
  %30 = icmp sgt i32 %25, 0
  br i1 %30, label %33, label %31

31:                                               ; preds = %29
  %32 = zext i32 %21 to i64
  br label %47

33:                                               ; preds = %29
  %34 = and i64 %24, 4294967295
  %35 = zext i32 %21 to i64
  br label %36

36:                                               ; preds = %33, %43
  %37 = phi i64 [ 0, %33 ], [ %45, %43 ]
  %38 = getelementptr [100 x [100 x i8]], [100 x [100 x i8]]* %4, i64 0, i64 %37, i64 0
  %39 = call i32 @strcmp(i8* noundef nonnull %38, i8* noundef nonnull %5) #8
  %40 = icmp eq i32 %39, 0
  br i1 %40, label %41, label %43

41:                                               ; preds = %36
  call void @llvm.memcpy.p0i8.p0i8.i64(i8* align 4 %38, i8* nonnull align 16 %3, i64 %34, i1 false)
  %42 = getelementptr inbounds [100 x [100 x i8]], [100 x [100 x i8]]* %4, i64 0, i64 %37, i64 %27
  store i8 0, i8* %42, align 1, !tbaa !11
  br label %43

43:                                               ; preds = %41, %36
  %44 = call i32 (i8*, ...) @printf(i8* nonnull dereferenceable(1) getelementptr inbounds ([4 x i8], [4 x i8]* @.str.1, i64 0, i64 0), i8* nonnull %38)
  %45 = add nuw nsw i64 %37, 1
  %46 = icmp eq i64 %45, %35
  br i1 %46, label %58, label %36, !llvm.loop !12

47:                                               ; preds = %31, %54
  %48 = phi i64 [ 0, %31 ], [ %56, %54 ]
  %49 = getelementptr inbounds [100 x [100 x i8]], [100 x [100 x i8]]* %4, i64 0, i64 %48, i64 0
  %50 = call i32 @strcmp(i8* noundef nonnull %49, i8* noundef nonnull %5) #8
  %51 = icmp eq i32 %50, 0
  br i1 %51, label %52, label %54

52:                                               ; preds = %47
  %53 = getelementptr inbounds [100 x [100 x i8]], [100 x [100 x i8]]* %4, i64 0, i64 %48, i64 %27
  store i8 0, i8* %53, align 1, !tbaa !11
  br label %54

54:                                               ; preds = %52, %47
  %55 = call i32 (i8*, ...) @printf(i8* nonnull dereferenceable(1) getelementptr inbounds ([4 x i8], [4 x i8]* @.str.1, i64 0, i64 0), i8* nonnull %49)
  %56 = add nuw nsw i64 %48, 1
  %57 = icmp eq i64 %56, %32
  br i1 %57, label %58, label %47, !llvm.loop !12

58:                                               ; preds = %54, %43, %20
  %59 = phi i64 [ 0, %20 ], [ %35, %43 ], [ %32, %54 ]
  %60 = getelementptr [100 x [100 x i8]], [100 x [100 x i8]]* %4, i64 0, i64 %59, i64 0
  %61 = call i32 @strcmp(i8* noundef nonnull %60, i8* noundef nonnull %5) #8
  %62 = icmp eq i32 %61, 0
  br i1 %62, label %63, label %69

63:                                               ; preds = %58
  %64 = icmp sgt i32 %25, 0
  br i1 %64, label %65, label %67

65:                                               ; preds = %63
  %66 = and i64 %24, 4294967295
  call void @llvm.memcpy.p0i8.p0i8.i64(i8* align 4 %60, i8* nonnull align 16 %3, i64 %66, i1 false)
  br label %67

67:                                               ; preds = %65, %63
  %68 = getelementptr inbounds [100 x [100 x i8]], [100 x [100 x i8]]* %4, i64 0, i64 %59, i64 %27
  store i8 0, i8* %68, align 1, !tbaa !11
  br label %69

69:                                               ; preds = %67, %58
  %70 = call i32 (i8*, ...) @printf(i8* nonnull dereferenceable(1) getelementptr inbounds ([3 x i8], [3 x i8]* @.str, i64 0, i64 0), i8* nonnull %60)
  call void @llvm.lifetime.end.p0i8(i64 10000, i8* nonnull %7) #7
  call void @llvm.lifetime.end.p0i8(i64 100, i8* nonnull %6) #7
  call void @llvm.lifetime.end.p0i8(i64 100, i8* nonnull %5) #7
  ret void
}

; Function Attrs: argmemonly mustprogress nofree nosync nounwind willreturn
declare void @llvm.lifetime.start.p0i8(i64 immarg, i8* nocapture) #1

; Function Attrs: argmemonly mustprogress nofree nounwind willreturn writeonly
declare void @llvm.memset.p0i8.i64(i8* nocapture writeonly, i8, i64, i1 immarg) #2

; Function Attrs: nofree nounwind
declare noundef i32 @__isoc99_scanf(i8* nocapture noundef readonly, ...) local_unnamed_addr #3

declare i32 @gets(...) local_unnamed_addr #4

; Function Attrs: argmemonly mustprogress nofree nounwind readonly willreturn
declare i64 @strlen(i8* nocapture) local_unnamed_addr #5

; Function Attrs: argmemonly mustprogress nofree nounwind readonly willreturn
declare i32 @strcmp(i8* nocapture, i8* nocapture) local_unnamed_addr #5

; Function Attrs: nofree nounwind
declare noundef i32 @printf(i8* nocapture noundef readonly, ...) local_unnamed_addr #3

; Function Attrs: argmemonly mustprogress nofree nosync nounwind willreturn
declare void @llvm.lifetime.end.p0i8(i64 immarg, i8* nocapture) #1

; Function Attrs: nofree nounwind
declare noundef i32 @getc(%struct._IO_FILE* nocapture noundef) local_unnamed_addr #3

; Function Attrs: argmemonly nofree nounwind willreturn
declare void @llvm.memcpy.p0i8.p0i8.i64(i8* noalias nocapture writeonly, i8* noalias nocapture readonly, i64, i1 immarg) #6


!llvm.module.flags = !{!0, !1, !2, !3}
!llvm.ident = !{!4}

!0 = !{i32 1, !"wchar_size", i32 4}
!1 = !{i32 7, !"PIC Level", i32 2}
!2 = !{i32 7, !"PIE Level", i32 2}
!3 = !{i32 7, !"uwtable", i32 1}
!4 = !{!"clang version 13.0.0"}
!5 = !{!6, !6, i64 0}
!6 = !{!"any pointer", !7, i64 0}
!7 = !{!"omnipotent char", !8, i64 0}
!8 = !{!"Simple C/C++ TBAA"}
!9 = distinct !{!9, !10}
!10 = !{!"llvm.loop.mustprogress"}
!11 = !{!7, !7, i64 0}
!12 = distinct !{!12, !10}
